
bomb:     file format elf64-x86-64


Disassembly of section .init:

0000000000400b68 <_init>:
  400b68:	48 83 ec 08          	sub    $0x8,%rsp
  400b6c:	48 8b 05 85 24 20 00 	mov    0x202485(%rip),%rax        # 602ff8 <__gmon_start__>
  400b73:	48 85 c0             	test   %rax,%rax
  400b76:	74 02                	je     400b7a <_init+0x12>
  400b78:	ff d0                	callq  *%rax
  400b7a:	48 83 c4 08          	add    $0x8,%rsp
  400b7e:	c3                   	retq   

Disassembly of section .plt:

0000000000400b80 <.plt>:
  400b80:	ff 35 82 24 20 00    	pushq  0x202482(%rip)        # 603008 <_GLOBAL_OFFSET_TABLE_+0x8>
  400b86:	ff 25 84 24 20 00    	jmpq   *0x202484(%rip)        # 603010 <_GLOBAL_OFFSET_TABLE_+0x10>
  400b8c:	0f 1f 40 00          	nopl   0x0(%rax)

0000000000400b90 <getenv@plt>:
  400b90:	ff 25 82 24 20 00    	jmpq   *0x202482(%rip)        # 603018 <getenv@GLIBC_2.2.5>
  400b96:	68 00 00 00 00       	pushq  $0x0
  400b9b:	e9 e0 ff ff ff       	jmpq   400b80 <.plt>

0000000000400ba0 <__errno_location@plt>:
  400ba0:	ff 25 7a 24 20 00    	jmpq   *0x20247a(%rip)        # 603020 <__errno_location@GLIBC_2.2.5>
  400ba6:	68 01 00 00 00       	pushq  $0x1
  400bab:	e9 d0 ff ff ff       	jmpq   400b80 <.plt>

0000000000400bb0 <strcpy@plt>:
  400bb0:	ff 25 72 24 20 00    	jmpq   *0x202472(%rip)        # 603028 <strcpy@GLIBC_2.2.5>
  400bb6:	68 02 00 00 00       	pushq  $0x2
  400bbb:	e9 c0 ff ff ff       	jmpq   400b80 <.plt>

0000000000400bc0 <puts@plt>:
  400bc0:	ff 25 6a 24 20 00    	jmpq   *0x20246a(%rip)        # 603030 <puts@GLIBC_2.2.5>
  400bc6:	68 03 00 00 00       	pushq  $0x3
  400bcb:	e9 b0 ff ff ff       	jmpq   400b80 <.plt>

0000000000400bd0 <write@plt>:
  400bd0:	ff 25 62 24 20 00    	jmpq   *0x202462(%rip)        # 603038 <write@GLIBC_2.2.5>
  400bd6:	68 04 00 00 00       	pushq  $0x4
  400bdb:	e9 a0 ff ff ff       	jmpq   400b80 <.plt>

0000000000400be0 <fclose@plt>:
  400be0:	ff 25 5a 24 20 00    	jmpq   *0x20245a(%rip)        # 603040 <fclose@GLIBC_2.2.5>
  400be6:	68 05 00 00 00       	pushq  $0x5
  400beb:	e9 90 ff ff ff       	jmpq   400b80 <.plt>

0000000000400bf0 <system@plt>:
  400bf0:	ff 25 52 24 20 00    	jmpq   *0x202452(%rip)        # 603048 <system@GLIBC_2.2.5>
  400bf6:	68 06 00 00 00       	pushq  $0x6
  400bfb:	e9 80 ff ff ff       	jmpq   400b80 <.plt>

0000000000400c00 <printf@plt>:
  400c00:	ff 25 4a 24 20 00    	jmpq   *0x20244a(%rip)        # 603050 <printf@GLIBC_2.2.5>
  400c06:	68 07 00 00 00       	pushq  $0x7
  400c0b:	e9 70 ff ff ff       	jmpq   400b80 <.plt>

0000000000400c10 <rewind@plt>:
  400c10:	ff 25 42 24 20 00    	jmpq   *0x202442(%rip)        # 603058 <rewind@GLIBC_2.2.5>
  400c16:	68 08 00 00 00       	pushq  $0x8
  400c1b:	e9 60 ff ff ff       	jmpq   400b80 <.plt>

0000000000400c20 <dup@plt>:
  400c20:	ff 25 3a 24 20 00    	jmpq   *0x20243a(%rip)        # 603060 <dup@GLIBC_2.2.5>
  400c26:	68 09 00 00 00       	pushq  $0x9
  400c2b:	e9 50 ff ff ff       	jmpq   400b80 <.plt>

0000000000400c30 <close@plt>:
  400c30:	ff 25 32 24 20 00    	jmpq   *0x202432(%rip)        # 603068 <close@GLIBC_2.2.5>
  400c36:	68 0a 00 00 00       	pushq  $0xa
  400c3b:	e9 40 ff ff ff       	jmpq   400b80 <.plt>

0000000000400c40 <fputc@plt>:
  400c40:	ff 25 2a 24 20 00    	jmpq   *0x20242a(%rip)        # 603070 <fputc@GLIBC_2.2.5>
  400c46:	68 0b 00 00 00       	pushq  $0xb
  400c4b:	e9 30 ff ff ff       	jmpq   400b80 <.plt>

0000000000400c50 <fgets@plt>:
  400c50:	ff 25 22 24 20 00    	jmpq   *0x202422(%rip)        # 603078 <fgets@GLIBC_2.2.5>
  400c56:	68 0c 00 00 00       	pushq  $0xc
  400c5b:	e9 20 ff ff ff       	jmpq   400b80 <.plt>

0000000000400c60 <tmpfile@plt>:
  400c60:	ff 25 1a 24 20 00    	jmpq   *0x20241a(%rip)        # 603080 <tmpfile@GLIBC_2.2.5>
  400c66:	68 0d 00 00 00       	pushq  $0xd
  400c6b:	e9 10 ff ff ff       	jmpq   400b80 <.plt>

0000000000400c70 <signal@plt>:
  400c70:	ff 25 12 24 20 00    	jmpq   *0x202412(%rip)        # 603088 <signal@GLIBC_2.2.5>
  400c76:	68 0e 00 00 00       	pushq  $0xe
  400c7b:	e9 00 ff ff ff       	jmpq   400b80 <.plt>

0000000000400c80 <gethostbyname@plt>:
  400c80:	ff 25 0a 24 20 00    	jmpq   *0x20240a(%rip)        # 603090 <gethostbyname@GLIBC_2.2.5>
  400c86:	68 0f 00 00 00       	pushq  $0xf
  400c8b:	e9 f0 fe ff ff       	jmpq   400b80 <.plt>

0000000000400c90 <fprintf@plt>:
  400c90:	ff 25 02 24 20 00    	jmpq   *0x202402(%rip)        # 603098 <fprintf@GLIBC_2.2.5>
  400c96:	68 10 00 00 00       	pushq  $0x10
  400c9b:	e9 e0 fe ff ff       	jmpq   400b80 <.plt>

0000000000400ca0 <strtol@plt>:
  400ca0:	ff 25 fa 23 20 00    	jmpq   *0x2023fa(%rip)        # 6030a0 <strtol@GLIBC_2.2.5>
  400ca6:	68 11 00 00 00       	pushq  $0x11
  400cab:	e9 d0 fe ff ff       	jmpq   400b80 <.plt>

0000000000400cb0 <inet_pton@plt>:
  400cb0:	ff 25 f2 23 20 00    	jmpq   *0x2023f2(%rip)        # 6030a8 <inet_pton@GLIBC_2.2.5>
  400cb6:	68 12 00 00 00       	pushq  $0x12
  400cbb:	e9 c0 fe ff ff       	jmpq   400b80 <.plt>

0000000000400cc0 <fflush@plt>:
  400cc0:	ff 25 ea 23 20 00    	jmpq   *0x2023ea(%rip)        # 6030b0 <fflush@GLIBC_2.2.5>
  400cc6:	68 13 00 00 00       	pushq  $0x13
  400ccb:	e9 b0 fe ff ff       	jmpq   400b80 <.plt>

0000000000400cd0 <__isoc99_sscanf@plt>:
  400cd0:	ff 25 e2 23 20 00    	jmpq   *0x2023e2(%rip)        # 6030b8 <__isoc99_sscanf@GLIBC_2.7>
  400cd6:	68 14 00 00 00       	pushq  $0x14
  400cdb:	e9 a0 fe ff ff       	jmpq   400b80 <.plt>

0000000000400ce0 <bcopy@plt>:
  400ce0:	ff 25 da 23 20 00    	jmpq   *0x2023da(%rip)        # 6030c0 <bcopy@GLIBC_2.2.5>
  400ce6:	68 15 00 00 00       	pushq  $0x15
  400ceb:	e9 90 fe ff ff       	jmpq   400b80 <.plt>

0000000000400cf0 <cuserid@plt>:
  400cf0:	ff 25 d2 23 20 00    	jmpq   *0x2023d2(%rip)        # 6030c8 <cuserid@GLIBC_2.2.5>
  400cf6:	68 16 00 00 00       	pushq  $0x16
  400cfb:	e9 80 fe ff ff       	jmpq   400b80 <.plt>

0000000000400d00 <fopen@plt>:
  400d00:	ff 25 ca 23 20 00    	jmpq   *0x2023ca(%rip)        # 6030d0 <fopen@GLIBC_2.2.5>
  400d06:	68 17 00 00 00       	pushq  $0x17
  400d0b:	e9 70 fe ff ff       	jmpq   400b80 <.plt>

0000000000400d10 <strcat@plt>:
  400d10:	ff 25 c2 23 20 00    	jmpq   *0x2023c2(%rip)        # 6030d8 <strcat@GLIBC_2.2.5>
  400d16:	68 18 00 00 00       	pushq  $0x18
  400d1b:	e9 60 fe ff ff       	jmpq   400b80 <.plt>

0000000000400d20 <sprintf@plt>:
  400d20:	ff 25 ba 23 20 00    	jmpq   *0x2023ba(%rip)        # 6030e0 <sprintf@GLIBC_2.2.5>
  400d26:	68 19 00 00 00       	pushq  $0x19
  400d2b:	e9 50 fe ff ff       	jmpq   400b80 <.plt>

0000000000400d30 <exit@plt>:
  400d30:	ff 25 b2 23 20 00    	jmpq   *0x2023b2(%rip)        # 6030e8 <exit@GLIBC_2.2.5>
  400d36:	68 1a 00 00 00       	pushq  $0x1a
  400d3b:	e9 40 fe ff ff       	jmpq   400b80 <.plt>

0000000000400d40 <connect@plt>:
  400d40:	ff 25 aa 23 20 00    	jmpq   *0x2023aa(%rip)        # 6030f0 <connect@GLIBC_2.2.5>
  400d46:	68 1b 00 00 00       	pushq  $0x1b
  400d4b:	e9 30 fe ff ff       	jmpq   400b80 <.plt>

0000000000400d50 <fwrite@plt>:
  400d50:	ff 25 a2 23 20 00    	jmpq   *0x2023a2(%rip)        # 6030f8 <fwrite@GLIBC_2.2.5>
  400d56:	68 1c 00 00 00       	pushq  $0x1c
  400d5b:	e9 20 fe ff ff       	jmpq   400b80 <.plt>

0000000000400d60 <sleep@plt>:
  400d60:	ff 25 9a 23 20 00    	jmpq   *0x20239a(%rip)        # 603100 <sleep@GLIBC_2.2.5>
  400d66:	68 1d 00 00 00       	pushq  $0x1d
  400d6b:	e9 10 fe ff ff       	jmpq   400b80 <.plt>

0000000000400d70 <__ctype_b_loc@plt>:
  400d70:	ff 25 92 23 20 00    	jmpq   *0x202392(%rip)        # 603108 <__ctype_b_loc@GLIBC_2.3>
  400d76:	68 1e 00 00 00       	pushq  $0x1e
  400d7b:	e9 00 fe ff ff       	jmpq   400b80 <.plt>

0000000000400d80 <socket@plt>:
  400d80:	ff 25 8a 23 20 00    	jmpq   *0x20238a(%rip)        # 603110 <socket@GLIBC_2.2.5>
  400d86:	68 1f 00 00 00       	pushq  $0x1f
  400d8b:	e9 f0 fd ff ff       	jmpq   400b80 <.plt>

Disassembly of section .text:

0000000000400d90 <_start>:
  400d90:	31 ed                	xor    %ebp,%ebp
  400d92:	49 89 d1             	mov    %rdx,%r9
  400d95:	5e                   	pop    %rsi
  400d96:	48 89 e2             	mov    %rsp,%rdx
  400d99:	48 83 e4 f0          	and    $0xfffffffffffffff0,%rsp
  400d9d:	50                   	push   %rax
  400d9e:	54                   	push   %rsp
  400d9f:	49 c7 c0 60 1e 40 00 	mov    $0x401e60,%r8
  400da6:	48 c7 c1 f0 1d 40 00 	mov    $0x401df0,%rcx
  400dad:	48 c7 c7 86 0e 40 00 	mov    $0x400e86,%rdi
  400db4:	ff 15 36 22 20 00    	callq  *0x202236(%rip)        # 602ff0 <__libc_start_main@GLIBC_2.2.5>
  400dba:	f4                   	hlt    
  400dbb:	0f 1f 44 00 00       	nopl   0x0(%rax,%rax,1)

0000000000400dc0 <deregister_tm_clones>:
  400dc0:	b8 a7 37 60 00       	mov    $0x6037a7,%eax
  400dc5:	55                   	push   %rbp
  400dc6:	48 2d a0 37 60 00    	sub    $0x6037a0,%rax
  400dcc:	48 83 f8 0e          	cmp    $0xe,%rax
  400dd0:	48 89 e5             	mov    %rsp,%rbp
  400dd3:	76 1b                	jbe    400df0 <deregister_tm_clones+0x30>
  400dd5:	b8 00 00 00 00       	mov    $0x0,%eax
  400dda:	48 85 c0             	test   %rax,%rax
  400ddd:	74 11                	je     400df0 <deregister_tm_clones+0x30>
  400ddf:	5d                   	pop    %rbp
  400de0:	bf a0 37 60 00       	mov    $0x6037a0,%edi
  400de5:	ff e0                	jmpq   *%rax
  400de7:	66 0f 1f 84 00 00 00 	nopw   0x0(%rax,%rax,1)
  400dee:	00 00 
  400df0:	5d                   	pop    %rbp
  400df1:	c3                   	retq   
  400df2:	0f 1f 40 00          	nopl   0x0(%rax)
  400df6:	66 2e 0f 1f 84 00 00 	nopw   %cs:0x0(%rax,%rax,1)
  400dfd:	00 00 00 

0000000000400e00 <register_tm_clones>:
  400e00:	be a0 37 60 00       	mov    $0x6037a0,%esi
  400e05:	55                   	push   %rbp
  400e06:	48 81 ee a0 37 60 00 	sub    $0x6037a0,%rsi
  400e0d:	48 c1 fe 03          	sar    $0x3,%rsi
  400e11:	48 89 e5             	mov    %rsp,%rbp
  400e14:	48 89 f0             	mov    %rsi,%rax
  400e17:	48 c1 e8 3f          	shr    $0x3f,%rax
  400e1b:	48 01 c6             	add    %rax,%rsi
  400e1e:	48 d1 fe             	sar    %rsi
  400e21:	74 15                	je     400e38 <register_tm_clones+0x38>
  400e23:	b8 00 00 00 00       	mov    $0x0,%eax
  400e28:	48 85 c0             	test   %rax,%rax
  400e2b:	74 0b                	je     400e38 <register_tm_clones+0x38>
  400e2d:	5d                   	pop    %rbp
  400e2e:	bf a0 37 60 00       	mov    $0x6037a0,%edi
  400e33:	ff e0                	jmpq   *%rax
  400e35:	0f 1f 00             	nopl   (%rax)
  400e38:	5d                   	pop    %rbp
  400e39:	c3                   	retq   
  400e3a:	66 0f 1f 44 00 00    	nopw   0x0(%rax,%rax,1)

0000000000400e40 <__do_global_dtors_aux>:
  400e40:	80 3d 71 29 20 00 00 	cmpb   $0x0,0x202971(%rip)        # 6037b8 <completed.6972>
  400e47:	75 11                	jne    400e5a <__do_global_dtors_aux+0x1a>
  400e49:	55                   	push   %rbp
  400e4a:	48 89 e5             	mov    %rsp,%rbp
  400e4d:	e8 6e ff ff ff       	callq  400dc0 <deregister_tm_clones>
  400e52:	5d                   	pop    %rbp
  400e53:	c6 05 5e 29 20 00 01 	movb   $0x1,0x20295e(%rip)        # 6037b8 <completed.6972>
  400e5a:	f3 c3                	repz retq 
  400e5c:	0f 1f 40 00          	nopl   0x0(%rax)

0000000000400e60 <frame_dummy>:
  400e60:	bf 18 2e 60 00       	mov    $0x602e18,%edi
  400e65:	48 83 3f 00          	cmpq   $0x0,(%rdi)
  400e69:	75 05                	jne    400e70 <frame_dummy+0x10>
  400e6b:	eb 93                	jmp    400e00 <register_tm_clones>
  400e6d:	0f 1f 00             	nopl   (%rax)
  400e70:	b8 00 00 00 00       	mov    $0x0,%eax
  400e75:	48 85 c0             	test   %rax,%rax
  400e78:	74 f1                	je     400e6b <frame_dummy+0xb>
  400e7a:	55                   	push   %rbp
  400e7b:	48 89 e5             	mov    %rsp,%rbp
  400e7e:	ff d0                	callq  *%rax
  400e80:	5d                   	pop    %rbp
  400e81:	e9 7a ff ff ff       	jmpq   400e00 <register_tm_clones>

0000000000400e86 <main>:
  400e86:	53                   	push   %rbx
  400e87:	83 ff 01             	cmp    $0x1,%edi
  400e8a:	0f 84 f8 00 00 00    	je     400f88 <main+0x102>
  400e90:	48 89 f3             	mov    %rsi,%rbx
  400e93:	83 ff 02             	cmp    $0x2,%edi
  400e96:	0f 85 1c 01 00 00    	jne    400fb8 <main+0x132>
  400e9c:	48 8b 7e 08          	mov    0x8(%rsi),%rdi
  400ea0:	48 8d 35 bb 13 00 00 	lea    0x13bb(%rip),%rsi        # 402262 <array.3089+0x252>
  400ea7:	e8 54 fe ff ff       	callq  400d00 <fopen@plt>
  400eac:	48 89 05 0d 29 20 00 	mov    %rax,0x20290d(%rip)        # 6037c0 <infile>
  400eb3:	48 85 c0             	test   %rax,%rax
  400eb6:	0f 84 df 00 00 00    	je     400f9b <main+0x115>
  400ebc:	e8 31 06 00 00       	callq  4014f2 <initialize_bomb>
  400ec1:	48 8d 3d 30 10 00 00 	lea    0x1030(%rip),%rdi        # 401ef8 <_IO_stdin_used+0x88>
  400ec8:	e8 f3 fc ff ff       	callq  400bc0 <puts@plt>
  400ecd:	48 8d 3d 64 10 00 00 	lea    0x1064(%rip),%rdi        # 401f38 <_IO_stdin_used+0xc8>
  400ed4:	e8 e7 fc ff ff       	callq  400bc0 <puts@plt>
  400ed9:	e8 6f 0d 00 00       	callq  401c4d <read_line>
  400ede:	48 89 c7             	mov    %rax,%rdi
  400ee1:	e8 f0 00 00 00       	callq  400fd6 <phase_1>
  400ee6:	e8 63 0e 00 00       	callq  401d4e <phase_defused>
  400eeb:	48 8d 3d 76 10 00 00 	lea    0x1076(%rip),%rdi        # 401f68 <_IO_stdin_used+0xf8>
  400ef2:	e8 c9 fc ff ff       	callq  400bc0 <puts@plt>
  400ef7:	e8 51 0d 00 00       	callq  401c4d <read_line>
  400efc:	48 89 c7             	mov    %rax,%rdi
  400eff:	e8 f2 00 00 00       	callq  400ff6 <phase_2>
  400f04:	e8 45 0e 00 00       	callq  401d4e <phase_defused>
  400f09:	48 8d 3d 9b 0f 00 00 	lea    0xf9b(%rip),%rdi        # 401eab <_IO_stdin_used+0x3b>
  400f10:	e8 ab fc ff ff       	callq  400bc0 <puts@plt>
  400f15:	e8 33 0d 00 00       	callq  401c4d <read_line>
  400f1a:	48 89 c7             	mov    %rax,%rdi
  400f1d:	e8 2b 01 00 00       	callq  40104d <phase_3>
  400f22:	e8 27 0e 00 00       	callq  401d4e <phase_defused>
  400f27:	48 8d 3d 9b 0f 00 00 	lea    0xf9b(%rip),%rdi        # 401ec9 <_IO_stdin_used+0x59>
  400f2e:	e8 8d fc ff ff       	callq  400bc0 <puts@plt>
  400f33:	e8 15 0d 00 00       	callq  401c4d <read_line>
  400f38:	48 89 c7             	mov    %rax,%rdi
  400f3b:	e8 c0 01 00 00       	callq  401100 <phase_4>
  400f40:	e8 09 0e 00 00       	callq  401d4e <phase_defused>
  400f45:	48 8d 3d 4c 10 00 00 	lea    0x104c(%rip),%rdi        # 401f98 <_IO_stdin_used+0x128>
  400f4c:	e8 6f fc ff ff       	callq  400bc0 <puts@plt>
  400f51:	e8 f7 0c 00 00       	callq  401c4d <read_line>
  400f56:	48 89 c7             	mov    %rax,%rdi
  400f59:	e8 e9 01 00 00       	callq  401147 <phase_5>
  400f5e:	e8 eb 0d 00 00       	callq  401d4e <phase_defused>
  400f63:	48 8d 3d 6e 0f 00 00 	lea    0xf6e(%rip),%rdi        # 401ed8 <_IO_stdin_used+0x68>
  400f6a:	e8 51 fc ff ff       	callq  400bc0 <puts@plt>
  400f6f:	e8 d9 0c 00 00       	callq  401c4d <read_line>
  400f74:	48 89 c7             	mov    %rax,%rdi
  400f77:	e8 2e 02 00 00       	callq  4011aa <phase_6>
  400f7c:	e8 cd 0d 00 00       	callq  401d4e <phase_defused>
  400f81:	b8 00 00 00 00       	mov    $0x0,%eax
  400f86:	5b                   	pop    %rbx
  400f87:	c3                   	retq   
  400f88:	48 8b 05 21 28 20 00 	mov    0x202821(%rip),%rax        # 6037b0 <stdin@@GLIBC_2.2.5>
  400f8f:	48 89 05 2a 28 20 00 	mov    %rax,0x20282a(%rip)        # 6037c0 <infile>
  400f96:	e9 21 ff ff ff       	jmpq   400ebc <main+0x36>
  400f9b:	48 8b 53 08          	mov    0x8(%rbx),%rdx
  400f9f:	48 8b 33             	mov    (%rbx),%rsi
  400fa2:	48 8d 3d cb 0e 00 00 	lea    0xecb(%rip),%rdi        # 401e74 <_IO_stdin_used+0x4>
  400fa9:	e8 52 fc ff ff       	callq  400c00 <printf@plt>
  400fae:	bf 08 00 00 00       	mov    $0x8,%edi
  400fb3:	e8 78 fd ff ff       	callq  400d30 <exit@plt>
  400fb8:	48 8b 36             	mov    (%rsi),%rsi
  400fbb:	48 8d 3d cf 0e 00 00 	lea    0xecf(%rip),%rdi        # 401e91 <_IO_stdin_used+0x21>
  400fc2:	b8 00 00 00 00       	mov    $0x0,%eax
  400fc7:	e8 34 fc ff ff       	callq  400c00 <printf@plt>
  400fcc:	bf 08 00 00 00       	mov    $0x8,%edi
  400fd1:	e8 5a fd ff ff       	callq  400d30 <exit@plt>

0000000000400fd6 <phase_1>:
  400fd6:	48 83 ec 08          	sub    $0x8,%rsp
  400fda:	48 8d 35 db 0f 00 00 	lea    0xfdb(%rip),%rsi        # 401fbc <_IO_stdin_used+0x14c>
  400fe1:	e8 da 03 00 00       	callq  4013c0 <strings_not_equal>
  400fe6:	85 c0                	test   %eax,%eax
  400fe8:	75 05                	jne    400fef <phase_1+0x19>
  400fea:	48 83 c4 08          	add    $0x8,%rsp
  400fee:	c3                   	retq   
  400fef:	e8 dc 0b 00 00       	callq  401bd0 <explode_bomb>
  400ff4:	eb f4                	jmp    400fea <phase_1+0x14>

0000000000400ff6 <phase_2>:
  400ff6:	41 55                	push   %r13
  400ff8:	41 54                	push   %r12
  400ffa:	55                   	push   %rbp
  400ffb:	53                   	push   %rbx
  400ffc:	48 83 ec 28          	sub    $0x28,%rsp
  401000:	49 89 e4             	mov    %rsp,%r12
  401003:	48 89 e6             	mov    %rsp,%rsi
  401006:	e8 01 0c 00 00       	callq  401c0c <read_six_numbers>
  40100b:	48 89 e3             	mov    %rsp,%rbx
  40100e:	49 83 c4 0c          	add    $0xc,%r12
  401012:	bd 00 00 00 00       	mov    $0x0,%ebp
  401017:	eb 0d                	jmp    401026 <phase_2+0x30>
  401019:	41 03 6d 00          	add    0x0(%r13),%ebp
  40101d:	48 83 c3 04          	add    $0x4,%rbx
  401021:	4c 39 e3             	cmp    %r12,%rbx
  401024:	74 11                	je     401037 <phase_2+0x41>
  401026:	49 89 dd             	mov    %rbx,%r13
  401029:	8b 43 0c             	mov    0xc(%rbx),%eax
  40102c:	39 03                	cmp    %eax,(%rbx)
  40102e:	74 e9                	je     401019 <phase_2+0x23>
  401030:	e8 9b 0b 00 00       	callq  401bd0 <explode_bomb>
  401035:	eb e2                	jmp    401019 <phase_2+0x23>
  401037:	85 ed                	test   %ebp,%ebp
  401039:	74 0b                	je     401046 <phase_2+0x50>
  40103b:	48 83 c4 28          	add    $0x28,%rsp
  40103f:	5b                   	pop    %rbx
  401040:	5d                   	pop    %rbp
  401041:	41 5c                	pop    %r12
  401043:	41 5d                	pop    %r13
  401045:	c3                   	retq   
  401046:	e8 85 0b 00 00       	callq  401bd0 <explode_bomb>
  40104b:	eb ee                	jmp    40103b <phase_2+0x45>

000000000040104d <phase_3>:
  40104d:	48 83 ec 18          	sub    $0x18,%rsp
  401051:	48 8d 4c 24 08       	lea    0x8(%rsp),%rcx
  401056:	48 8d 54 24 0c       	lea    0xc(%rsp),%rdx
  40105b:	48 8d 35 09 13 00 00 	lea    0x1309(%rip),%rsi        # 40236b <array.3089+0x35b>
  401062:	b8 00 00 00 00       	mov    $0x0,%eax
  401067:	e8 64 fc ff ff       	callq  400cd0 <__isoc99_sscanf@plt>
  40106c:	83 f8 01             	cmp    $0x1,%eax
  40106f:	7e 1b                	jle    40108c <phase_3+0x3f>
  401071:	83 7c 24 0c 07       	cmpl   $0x7,0xc(%rsp)
  401076:	77 4c                	ja     4010c4 <phase_3+0x77>
  401078:	8b 44 24 0c          	mov    0xc(%rsp),%eax
  40107c:	48 8d 15 6d 0f 00 00 	lea    0xf6d(%rip),%rdx        # 401ff0 <_IO_stdin_used+0x180>
  401083:	48 63 04 82          	movslq (%rdx,%rax,4),%rax
  401087:	48 01 d0             	add    %rdx,%rax
  40108a:	ff e0                	jmpq   *%rax
  40108c:	e8 3f 0b 00 00       	callq  401bd0 <explode_bomb>
  401091:	eb de                	jmp    401071 <phase_3+0x24>
  401093:	b8 67 01 00 00       	mov    $0x167,%eax
  401098:	eb 3b                	jmp    4010d5 <phase_3+0x88>
  40109a:	b8 8c 00 00 00       	mov    $0x8c,%eax
  40109f:	eb 34                	jmp    4010d5 <phase_3+0x88>
  4010a1:	b8 d2 00 00 00       	mov    $0xd2,%eax
  4010a6:	eb 2d                	jmp    4010d5 <phase_3+0x88>
  4010a8:	b8 65 00 00 00       	mov    $0x65,%eax
  4010ad:	eb 26                	jmp    4010d5 <phase_3+0x88>
  4010af:	b8 c8 03 00 00       	mov    $0x3c8,%eax
  4010b4:	eb 1f                	jmp    4010d5 <phase_3+0x88>
  4010b6:	b8 61 02 00 00       	mov    $0x261,%eax
  4010bb:	eb 18                	jmp    4010d5 <phase_3+0x88>
  4010bd:	b8 f7 02 00 00       	mov    $0x2f7,%eax
  4010c2:	eb 11                	jmp    4010d5 <phase_3+0x88>
  4010c4:	e8 07 0b 00 00       	callq  401bd0 <explode_bomb>
  4010c9:	b8 00 00 00 00       	mov    $0x0,%eax
  4010ce:	eb 05                	jmp    4010d5 <phase_3+0x88>
  4010d0:	b8 29 02 00 00       	mov    $0x229,%eax
  4010d5:	3b 44 24 08          	cmp    0x8(%rsp),%eax
  4010d9:	74 05                	je     4010e0 <phase_3+0x93>
  4010db:	e8 f0 0a 00 00       	callq  401bd0 <explode_bomb>
  4010e0:	48 83 c4 18          	add    $0x18,%rsp
  4010e4:	c3                   	retq   

00000000004010e5 <func4>:
  4010e5:	b8 01 00 00 00       	mov    $0x1,%eax
  4010ea:	83 ff 01             	cmp    $0x1,%edi
  4010ed:	7e 0f                	jle    4010fe <func4+0x19>
  4010ef:	53                   	push   %rbx
  4010f0:	89 fb                	mov    %edi,%ebx
  4010f2:	8d 7f ff             	lea    -0x1(%rdi),%edi
  4010f5:	e8 eb ff ff ff       	callq  4010e5 <func4>
  4010fa:	0f af c3             	imul   %ebx,%eax
  4010fd:	5b                   	pop    %rbx
  4010fe:	f3 c3                	repz retq 

0000000000401100 <phase_4>:
  401100:	48 83 ec 18          	sub    $0x18,%rsp
  401104:	48 8d 54 24 0c       	lea    0xc(%rsp),%rdx
  401109:	48 8d 35 5e 12 00 00 	lea    0x125e(%rip),%rsi        # 40236e <array.3089+0x35e>
  401110:	b8 00 00 00 00       	mov    $0x0,%eax
  401115:	e8 b6 fb ff ff       	callq  400cd0 <__isoc99_sscanf@plt>
  40111a:	83 f8 01             	cmp    $0x1,%eax
  40111d:	74 1f                	je     40113e <phase_4+0x3e>
  40111f:	e8 ac 0a 00 00       	callq  401bd0 <explode_bomb>
  401124:	8b 7c 24 0c          	mov    0xc(%rsp),%edi
  401128:	e8 b8 ff ff ff       	callq  4010e5 <func4>
  40112d:	3d 00 5f 37 00       	cmp    $0x375f00,%eax
  401132:	74 05                	je     401139 <phase_4+0x39>
  401134:	e8 97 0a 00 00       	callq  401bd0 <explode_bomb>
  401139:	48 83 c4 18          	add    $0x18,%rsp
  40113d:	c3                   	retq   
  40113e:	83 7c 24 0c 00       	cmpl   $0x0,0xc(%rsp)
  401143:	7f df                	jg     401124 <phase_4+0x24>
  401145:	eb d8                	jmp    40111f <phase_4+0x1f>

0000000000401147 <phase_5>:
  401147:	53                   	push   %rbx
  401148:	48 83 ec 10          	sub    $0x10,%rsp
  40114c:	48 89 fb             	mov    %rdi,%rbx
  40114f:	e8 4e 02 00 00       	callq  4013a2 <string_length>
  401154:	83 f8 06             	cmp    $0x6,%eax
  401157:	74 05                	je     40115e <phase_5+0x17>
  401159:	e8 72 0a 00 00       	callq  401bd0 <explode_bomb>
  40115e:	b8 00 00 00 00       	mov    $0x0,%eax
  401163:	48 8d 0d a6 0e 00 00 	lea    0xea6(%rip),%rcx        # 402010 <array.3089>
  40116a:	0f b6 14 03          	movzbl (%rbx,%rax,1),%edx
  40116e:	83 e2 0f             	and    $0xf,%edx
  401171:	0f b6 14 11          	movzbl (%rcx,%rdx,1),%edx
  401175:	88 54 04 09          	mov    %dl,0x9(%rsp,%rax,1)
  401179:	48 83 c0 01          	add    $0x1,%rax
  40117d:	48 83 f8 06          	cmp    $0x6,%rax
  401181:	75 e7                	jne    40116a <phase_5+0x23>
  401183:	c6 44 24 0f 00       	movb   $0x0,0xf(%rsp)
  401188:	48 8d 7c 24 09       	lea    0x9(%rsp),%rdi
  40118d:	48 8d 35 46 0e 00 00 	lea    0xe46(%rip),%rsi        # 401fda <_IO_stdin_used+0x16a>
  401194:	e8 27 02 00 00       	callq  4013c0 <strings_not_equal>
  401199:	85 c0                	test   %eax,%eax
  40119b:	75 06                	jne    4011a3 <phase_5+0x5c>
  40119d:	48 83 c4 10          	add    $0x10,%rsp
  4011a1:	5b                   	pop    %rbx
  4011a2:	c3                   	retq   
  4011a3:	e8 28 0a 00 00       	callq  401bd0 <explode_bomb>
  4011a8:	eb f3                	jmp    40119d <phase_5+0x56>

00000000004011aa <phase_6>:
  4011aa:	41 55                	push   %r13
  4011ac:	41 54                	push   %r12
  4011ae:	55                   	push   %rbp
  4011af:	53                   	push   %rbx
  4011b0:	48 83 ec 58          	sub    $0x58,%rsp
  4011b4:	4c 8d 64 24 30       	lea    0x30(%rsp),%r12
  4011b9:	4c 89 e6             	mov    %r12,%rsi
  4011bc:	e8 4b 0a 00 00       	callq  401c0c <read_six_numbers>
  4011c1:	41 bd 00 00 00 00    	mov    $0x0,%r13d
  4011c7:	eb 25                	jmp    4011ee <phase_6+0x44>
  4011c9:	41 83 c5 01          	add    $0x1,%r13d
  4011cd:	41 83 fd 06          	cmp    $0x6,%r13d
  4011d1:	74 38                	je     40120b <phase_6+0x61>
  4011d3:	44 89 eb             	mov    %r13d,%ebx
  4011d6:	48 63 c3             	movslq %ebx,%rax
  4011d9:	8b 44 84 30          	mov    0x30(%rsp,%rax,4),%eax
  4011dd:	39 45 00             	cmp    %eax,0x0(%rbp)
  4011e0:	74 22                	je     401204 <phase_6+0x5a>
  4011e2:	83 c3 01             	add    $0x1,%ebx
  4011e5:	83 fb 05             	cmp    $0x5,%ebx
  4011e8:	7e ec                	jle    4011d6 <phase_6+0x2c>
  4011ea:	49 83 c4 04          	add    $0x4,%r12
  4011ee:	4c 89 e5             	mov    %r12,%rbp
  4011f1:	41 8b 04 24          	mov    (%r12),%eax
  4011f5:	83 e8 01             	sub    $0x1,%eax
  4011f8:	83 f8 05             	cmp    $0x5,%eax
  4011fb:	76 cc                	jbe    4011c9 <phase_6+0x1f>
  4011fd:	e8 ce 09 00 00       	callq  401bd0 <explode_bomb>
  401202:	eb c5                	jmp    4011c9 <phase_6+0x1f>
  401204:	e8 c7 09 00 00       	callq  401bd0 <explode_bomb>
  401209:	eb d7                	jmp    4011e2 <phase_6+0x38>
  40120b:	be 00 00 00 00       	mov    $0x0,%esi
  401210:	8b 4c 34 30          	mov    0x30(%rsp,%rsi,1),%ecx
  401214:	b8 01 00 00 00       	mov    $0x1,%eax
  401219:	48 8d 15 30 25 20 00 	lea    0x202530(%rip),%rdx        # 603750 <node1>
  401220:	83 f9 01             	cmp    $0x1,%ecx
  401223:	7e 0b                	jle    401230 <phase_6+0x86>
  401225:	48 8b 52 08          	mov    0x8(%rdx),%rdx
  401229:	83 c0 01             	add    $0x1,%eax
  40122c:	39 c8                	cmp    %ecx,%eax
  40122e:	75 f5                	jne    401225 <phase_6+0x7b>
  401230:	48 89 14 74          	mov    %rdx,(%rsp,%rsi,2)
  401234:	48 83 c6 04          	add    $0x4,%rsi
  401238:	48 83 fe 18          	cmp    $0x18,%rsi
  40123c:	75 d2                	jne    401210 <phase_6+0x66>
  40123e:	48 8b 1c 24          	mov    (%rsp),%rbx
  401242:	48 89 e0             	mov    %rsp,%rax
  401245:	48 8d 74 24 28       	lea    0x28(%rsp),%rsi
  40124a:	48 89 d9             	mov    %rbx,%rcx
  40124d:	48 8b 50 08          	mov    0x8(%rax),%rdx
  401251:	48 89 51 08          	mov    %rdx,0x8(%rcx)
  401255:	48 83 c0 08          	add    $0x8,%rax
  401259:	48 89 d1             	mov    %rdx,%rcx
  40125c:	48 39 c6             	cmp    %rax,%rsi
  40125f:	75 ec                	jne    40124d <phase_6+0xa3>
  401261:	48 c7 42 08 00 00 00 	movq   $0x0,0x8(%rdx)
  401268:	00 
  401269:	bd 05 00 00 00       	mov    $0x5,%ebp
  40126e:	eb 09                	jmp    401279 <phase_6+0xcf>
  401270:	48 8b 5b 08          	mov    0x8(%rbx),%rbx
  401274:	83 ed 01             	sub    $0x1,%ebp
  401277:	74 11                	je     40128a <phase_6+0xe0>
  401279:	48 8b 43 08          	mov    0x8(%rbx),%rax
  40127d:	8b 00                	mov    (%rax),%eax
  40127f:	39 03                	cmp    %eax,(%rbx)
  401281:	7d ed                	jge    401270 <phase_6+0xc6>
  401283:	e8 48 09 00 00       	callq  401bd0 <explode_bomb>
  401288:	eb e6                	jmp    401270 <phase_6+0xc6>
  40128a:	48 83 c4 58          	add    $0x58,%rsp
  40128e:	5b                   	pop    %rbx
  40128f:	5d                   	pop    %rbp
  401290:	41 5c                	pop    %r12
  401292:	41 5d                	pop    %r13
  401294:	c3                   	retq   

0000000000401295 <fun7>:
  401295:	48 85 ff             	test   %rdi,%rdi
  401298:	74 32                	je     4012cc <fun7+0x37>
  40129a:	48 83 ec 08          	sub    $0x8,%rsp
  40129e:	8b 17                	mov    (%rdi),%edx
  4012a0:	39 f2                	cmp    %esi,%edx
  4012a2:	7f 1b                	jg     4012bf <fun7+0x2a>
  4012a4:	b8 00 00 00 00       	mov    $0x0,%eax
  4012a9:	39 f2                	cmp    %esi,%edx
  4012ab:	74 0d                	je     4012ba <fun7+0x25>
  4012ad:	48 8b 7f 10          	mov    0x10(%rdi),%rdi
  4012b1:	e8 df ff ff ff       	callq  401295 <fun7>
  4012b6:	8d 44 00 01          	lea    0x1(%rax,%rax,1),%eax
  4012ba:	48 83 c4 08          	add    $0x8,%rsp
  4012be:	c3                   	retq   
  4012bf:	48 8b 7f 08          	mov    0x8(%rdi),%rdi
  4012c3:	e8 cd ff ff ff       	callq  401295 <fun7>
  4012c8:	01 c0                	add    %eax,%eax
  4012ca:	eb ee                	jmp    4012ba <fun7+0x25>
  4012cc:	b8 ff ff ff ff       	mov    $0xffffffff,%eax
  4012d1:	c3                   	retq   

00000000004012d2 <secret_phase>:
  4012d2:	53                   	push   %rbx
  4012d3:	e8 75 09 00 00       	callq  401c4d <read_line>
  4012d8:	ba 0a 00 00 00       	mov    $0xa,%edx
  4012dd:	be 00 00 00 00       	mov    $0x0,%esi
  4012e2:	48 89 c7             	mov    %rax,%rdi
  4012e5:	e8 b6 f9 ff ff       	callq  400ca0 <strtol@plt>
  4012ea:	48 89 c3             	mov    %rax,%rbx
  4012ed:	8d 40 ff             	lea    -0x1(%rax),%eax
  4012f0:	3d e8 03 00 00       	cmp    $0x3e8,%eax
  4012f5:	77 2b                	ja     401322 <secret_phase+0x50>
  4012f7:	89 de                	mov    %ebx,%esi
  4012f9:	48 8d 3d 70 23 20 00 	lea    0x202370(%rip),%rdi        # 603670 <n1>
  401300:	e8 90 ff ff ff       	callq  401295 <fun7>
  401305:	83 f8 07             	cmp    $0x7,%eax
  401308:	74 05                	je     40130f <secret_phase+0x3d>
  40130a:	e8 c1 08 00 00       	callq  401bd0 <explode_bomb>
  40130f:	48 8d 3d 0a 0d 00 00 	lea    0xd0a(%rip),%rdi        # 402020 <array.3089+0x10>
  401316:	e8 a5 f8 ff ff       	callq  400bc0 <puts@plt>
  40131b:	e8 2e 0a 00 00       	callq  401d4e <phase_defused>
  401320:	5b                   	pop    %rbx
  401321:	c3                   	retq   
  401322:	e8 a9 08 00 00       	callq  401bd0 <explode_bomb>
  401327:	eb ce                	jmp    4012f7 <secret_phase+0x25>

0000000000401329 <sig_handler>:
  401329:	48 83 ec 08          	sub    $0x8,%rsp
  40132d:	48 8d 3d 14 0d 00 00 	lea    0xd14(%rip),%rdi        # 402048 <array.3089+0x38>
  401334:	e8 87 f8 ff ff       	callq  400bc0 <puts@plt>
  401339:	bf 03 00 00 00       	mov    $0x3,%edi
  40133e:	e8 1d fa ff ff       	callq  400d60 <sleep@plt>
  401343:	48 8d 3d 36 0e 00 00 	lea    0xe36(%rip),%rdi        # 402180 <array.3089+0x170>
  40134a:	b8 00 00 00 00       	mov    $0x0,%eax
  40134f:	e8 ac f8 ff ff       	callq  400c00 <printf@plt>
  401354:	48 8b 3d 45 24 20 00 	mov    0x202445(%rip),%rdi        # 6037a0 <stdout@@GLIBC_2.2.5>
  40135b:	e8 60 f9 ff ff       	callq  400cc0 <fflush@plt>
  401360:	bf 01 00 00 00       	mov    $0x1,%edi
  401365:	e8 f6 f9 ff ff       	callq  400d60 <sleep@plt>
  40136a:	48 8d 3d 17 0e 00 00 	lea    0xe17(%rip),%rdi        # 402188 <array.3089+0x178>
  401371:	e8 4a f8 ff ff       	callq  400bc0 <puts@plt>
  401376:	bf 10 00 00 00       	mov    $0x10,%edi
  40137b:	e8 b0 f9 ff ff       	callq  400d30 <exit@plt>

0000000000401380 <invalid_phase>:
  401380:	48 83 ec 08          	sub    $0x8,%rsp
  401384:	48 89 fe             	mov    %rdi,%rsi
  401387:	48 8d 3d 02 0e 00 00 	lea    0xe02(%rip),%rdi        # 402190 <array.3089+0x180>
  40138e:	b8 00 00 00 00       	mov    $0x0,%eax
  401393:	e8 68 f8 ff ff       	callq  400c00 <printf@plt>
  401398:	bf 08 00 00 00       	mov    $0x8,%edi
  40139d:	e8 8e f9 ff ff       	callq  400d30 <exit@plt>

00000000004013a2 <string_length>:
  4013a2:	80 3f 00             	cmpb   $0x0,(%rdi)
  4013a5:	74 13                	je     4013ba <string_length+0x18>
  4013a7:	b8 00 00 00 00       	mov    $0x0,%eax
  4013ac:	48 83 c7 01          	add    $0x1,%rdi
  4013b0:	83 c0 01             	add    $0x1,%eax
  4013b3:	80 3f 00             	cmpb   $0x0,(%rdi)
  4013b6:	75 f4                	jne    4013ac <string_length+0xa>
  4013b8:	f3 c3                	repz retq 
  4013ba:	b8 00 00 00 00       	mov    $0x0,%eax
  4013bf:	c3                   	retq   

00000000004013c0 <strings_not_equal>:
  4013c0:	41 54                	push   %r12
  4013c2:	55                   	push   %rbp
  4013c3:	53                   	push   %rbx
  4013c4:	48 89 fb             	mov    %rdi,%rbx
  4013c7:	48 89 f5             	mov    %rsi,%rbp
  4013ca:	e8 d3 ff ff ff       	callq  4013a2 <string_length>
  4013cf:	41 89 c4             	mov    %eax,%r12d
  4013d2:	48 89 ef             	mov    %rbp,%rdi
  4013d5:	e8 c8 ff ff ff       	callq  4013a2 <string_length>
  4013da:	ba 01 00 00 00       	mov    $0x1,%edx
  4013df:	41 39 c4             	cmp    %eax,%r12d
  4013e2:	74 07                	je     4013eb <strings_not_equal+0x2b>
  4013e4:	89 d0                	mov    %edx,%eax
  4013e6:	5b                   	pop    %rbx
  4013e7:	5d                   	pop    %rbp
  4013e8:	41 5c                	pop    %r12
  4013ea:	c3                   	retq   
  4013eb:	0f b6 03             	movzbl (%rbx),%eax
  4013ee:	84 c0                	test   %al,%al
  4013f0:	74 27                	je     401419 <strings_not_equal+0x59>
  4013f2:	3a 45 00             	cmp    0x0(%rbp),%al
  4013f5:	75 29                	jne    401420 <strings_not_equal+0x60>
  4013f7:	48 83 c3 01          	add    $0x1,%rbx
  4013fb:	48 83 c5 01          	add    $0x1,%rbp
  4013ff:	0f b6 03             	movzbl (%rbx),%eax
  401402:	84 c0                	test   %al,%al
  401404:	74 0c                	je     401412 <strings_not_equal+0x52>
  401406:	3a 45 00             	cmp    0x0(%rbp),%al
  401409:	74 ec                	je     4013f7 <strings_not_equal+0x37>
  40140b:	ba 01 00 00 00       	mov    $0x1,%edx
  401410:	eb d2                	jmp    4013e4 <strings_not_equal+0x24>
  401412:	ba 00 00 00 00       	mov    $0x0,%edx
  401417:	eb cb                	jmp    4013e4 <strings_not_equal+0x24>
  401419:	ba 00 00 00 00       	mov    $0x0,%edx
  40141e:	eb c4                	jmp    4013e4 <strings_not_equal+0x24>
  401420:	ba 01 00 00 00       	mov    $0x1,%edx
  401425:	eb bd                	jmp    4013e4 <strings_not_equal+0x24>

0000000000401427 <open_clientfd>:
  401427:	41 54                	push   %r12
  401429:	55                   	push   %rbp
  40142a:	53                   	push   %rbx
  40142b:	48 83 ec 10          	sub    $0x10,%rsp
  40142f:	49 89 fc             	mov    %rdi,%r12
  401432:	89 f3                	mov    %esi,%ebx
  401434:	ba 00 00 00 00       	mov    $0x0,%edx
  401439:	be 01 00 00 00       	mov    $0x1,%esi
  40143e:	bf 02 00 00 00       	mov    $0x2,%edi
  401443:	e8 38 f9 ff ff       	callq  400d80 <socket@plt>
  401448:	85 c0                	test   %eax,%eax
  40144a:	78 64                	js     4014b0 <open_clientfd+0x89>
  40144c:	89 c5                	mov    %eax,%ebp
  40144e:	4c 89 e7             	mov    %r12,%rdi
  401451:	e8 2a f8 ff ff       	callq  400c80 <gethostbyname@plt>
  401456:	48 85 c0             	test   %rax,%rax
  401459:	74 6b                	je     4014c6 <open_clientfd+0x9f>
  40145b:	48 c7 04 24 00 00 00 	movq   $0x0,(%rsp)
  401462:	00 
  401463:	48 c7 44 24 08 00 00 	movq   $0x0,0x8(%rsp)
  40146a:	00 00 
  40146c:	66 c7 04 24 02 00    	movw   $0x2,(%rsp)
  401472:	48 63 50 14          	movslq 0x14(%rax),%rdx
  401476:	48 8d 74 24 04       	lea    0x4(%rsp),%rsi
  40147b:	48 8b 40 18          	mov    0x18(%rax),%rax
  40147f:	48 8b 38             	mov    (%rax),%rdi
  401482:	e8 59 f8 ff ff       	callq  400ce0 <bcopy@plt>
  401487:	89 de                	mov    %ebx,%esi
  401489:	66 c1 ce 08          	ror    $0x8,%si
  40148d:	66 89 74 24 02       	mov    %si,0x2(%rsp)
  401492:	ba 10 00 00 00       	mov    $0x10,%edx
  401497:	48 89 e6             	mov    %rsp,%rsi
  40149a:	89 ef                	mov    %ebp,%edi
  40149c:	e8 9f f8 ff ff       	callq  400d40 <connect@plt>
  4014a1:	85 c0                	test   %eax,%eax
  4014a3:	78 37                	js     4014dc <open_clientfd+0xb5>
  4014a5:	89 e8                	mov    %ebp,%eax
  4014a7:	48 83 c4 10          	add    $0x10,%rsp
  4014ab:	5b                   	pop    %rbx
  4014ac:	5d                   	pop    %rbp
  4014ad:	41 5c                	pop    %r12
  4014af:	c3                   	retq   
  4014b0:	48 8d 3d ea 0c 00 00 	lea    0xcea(%rip),%rdi        # 4021a1 <array.3089+0x191>
  4014b7:	e8 04 f7 ff ff       	callq  400bc0 <puts@plt>
  4014bc:	bf 08 00 00 00       	mov    $0x8,%edi
  4014c1:	e8 6a f8 ff ff       	callq  400d30 <exit@plt>
  4014c6:	48 8d 3d e2 0c 00 00 	lea    0xce2(%rip),%rdi        # 4021af <array.3089+0x19f>
  4014cd:	e8 ee f6 ff ff       	callq  400bc0 <puts@plt>
  4014d2:	bf 08 00 00 00       	mov    $0x8,%edi
  4014d7:	e8 54 f8 ff ff       	callq  400d30 <exit@plt>
  4014dc:	48 8d 3d da 0c 00 00 	lea    0xcda(%rip),%rdi        # 4021bd <array.3089+0x1ad>
  4014e3:	e8 d8 f6 ff ff       	callq  400bc0 <puts@plt>
  4014e8:	bf 08 00 00 00       	mov    $0x8,%edi
  4014ed:	e8 3e f8 ff ff       	callq  400d30 <exit@plt>

00000000004014f2 <initialize_bomb>:
  4014f2:	48 83 ec 08          	sub    $0x8,%rsp
  4014f6:	48 8d 35 2c fe ff ff 	lea    -0x1d4(%rip),%rsi        # 401329 <sig_handler>
  4014fd:	bf 02 00 00 00       	mov    $0x2,%edi
  401502:	e8 69 f7 ff ff       	callq  400c70 <signal@plt>
  401507:	be 50 00 00 00       	mov    $0x50,%esi
  40150c:	48 8d 3d b8 0c 00 00 	lea    0xcb8(%rip),%rdi        # 4021cb <array.3089+0x1bb>
  401513:	e8 0f ff ff ff       	callq  401427 <open_clientfd>
  401518:	89 c7                	mov    %eax,%edi
  40151a:	e8 11 f7 ff ff       	callq  400c30 <close@plt>
  40151f:	48 83 c4 08          	add    $0x8,%rsp
  401523:	c3                   	retq   

0000000000401524 <blank_line>:
  401524:	55                   	push   %rbp
  401525:	53                   	push   %rbx
  401526:	48 83 ec 08          	sub    $0x8,%rsp
  40152a:	48 89 fd             	mov    %rdi,%rbp
  40152d:	0f b6 5d 00          	movzbl 0x0(%rbp),%ebx
  401531:	84 db                	test   %bl,%bl
  401533:	74 1e                	je     401553 <blank_line+0x2f>
  401535:	e8 36 f8 ff ff       	callq  400d70 <__ctype_b_loc@plt>
  40153a:	48 83 c5 01          	add    $0x1,%rbp
  40153e:	48 0f be db          	movsbq %bl,%rbx
  401542:	48 8b 00             	mov    (%rax),%rax
  401545:	f6 44 58 01 20       	testb  $0x20,0x1(%rax,%rbx,2)
  40154a:	75 e1                	jne    40152d <blank_line+0x9>
  40154c:	b8 00 00 00 00       	mov    $0x0,%eax
  401551:	eb 05                	jmp    401558 <blank_line+0x34>
  401553:	b8 01 00 00 00       	mov    $0x1,%eax
  401558:	48 83 c4 08          	add    $0x8,%rsp
  40155c:	5b                   	pop    %rbx
  40155d:	5d                   	pop    %rbp
  40155e:	c3                   	retq   

000000000040155f <skip>:
  40155f:	55                   	push   %rbp
  401560:	53                   	push   %rbx
  401561:	48 83 ec 08          	sub    $0x8,%rsp
  401565:	48 8d 2d 74 22 20 00 	lea    0x202274(%rip),%rbp        # 6037e0 <input_strings>
  40156c:	48 63 05 49 22 20 00 	movslq 0x202249(%rip),%rax        # 6037bc <num_input_strings>
  401573:	48 8d 3c 80          	lea    (%rax,%rax,4),%rdi
  401577:	48 c1 e7 04          	shl    $0x4,%rdi
  40157b:	48 01 ef             	add    %rbp,%rdi
  40157e:	48 8b 15 3b 22 20 00 	mov    0x20223b(%rip),%rdx        # 6037c0 <infile>
  401585:	be 50 00 00 00       	mov    $0x50,%esi
  40158a:	e8 c1 f6 ff ff       	callq  400c50 <fgets@plt>
  40158f:	48 89 c3             	mov    %rax,%rbx
  401592:	48 85 c0             	test   %rax,%rax
  401595:	74 0c                	je     4015a3 <skip+0x44>
  401597:	48 89 c7             	mov    %rax,%rdi
  40159a:	e8 85 ff ff ff       	callq  401524 <blank_line>
  40159f:	85 c0                	test   %eax,%eax
  4015a1:	75 c9                	jne    40156c <skip+0xd>
  4015a3:	48 89 d8             	mov    %rbx,%rax
  4015a6:	48 83 c4 08          	add    $0x8,%rsp
  4015aa:	5b                   	pop    %rbx
  4015ab:	5d                   	pop    %rbp
  4015ac:	c3                   	retq   

00000000004015ad <writen>:
  4015ad:	41 56                	push   %r14
  4015af:	41 55                	push   %r13
  4015b1:	41 54                	push   %r12
  4015b3:	55                   	push   %rbp
  4015b4:	53                   	push   %rbx
  4015b5:	49 89 d5             	mov    %rdx,%r13
  4015b8:	48 85 d2             	test   %rdx,%rdx
  4015bb:	74 3b                	je     4015f8 <writen+0x4b>
  4015bd:	41 89 fc             	mov    %edi,%r12d
  4015c0:	48 89 f5             	mov    %rsi,%rbp
  4015c3:	48 89 d3             	mov    %rdx,%rbx
  4015c6:	41 be 00 00 00 00    	mov    $0x0,%r14d
  4015cc:	eb 08                	jmp    4015d6 <writen+0x29>
  4015ce:	48 01 c5             	add    %rax,%rbp
  4015d1:	48 29 c3             	sub    %rax,%rbx
  4015d4:	74 22                	je     4015f8 <writen+0x4b>
  4015d6:	48 89 da             	mov    %rbx,%rdx
  4015d9:	48 89 ee             	mov    %rbp,%rsi
  4015dc:	44 89 e7             	mov    %r12d,%edi
  4015df:	e8 ec f5 ff ff       	callq  400bd0 <write@plt>
  4015e4:	48 85 c0             	test   %rax,%rax
  4015e7:	7f e5                	jg     4015ce <writen+0x21>
  4015e9:	e8 b2 f5 ff ff       	callq  400ba0 <__errno_location@plt>
  4015ee:	83 38 04             	cmpl   $0x4,(%rax)
  4015f1:	75 11                	jne    401604 <writen+0x57>
  4015f3:	4c 89 f0             	mov    %r14,%rax
  4015f6:	eb d6                	jmp    4015ce <writen+0x21>
  4015f8:	4c 89 e8             	mov    %r13,%rax
  4015fb:	5b                   	pop    %rbx
  4015fc:	5d                   	pop    %rbp
  4015fd:	41 5c                	pop    %r12
  4015ff:	41 5d                	pop    %r13
  401601:	41 5e                	pop    %r14
  401603:	c3                   	retq   
  401604:	48 c7 c0 ff ff ff ff 	mov    $0xffffffffffffffff,%rax
  40160b:	eb ee                	jmp    4015fb <writen+0x4e>

000000000040160d <send_msg>:
  40160d:	41 57                	push   %r15
  40160f:	41 56                	push   %r14
  401611:	41 55                	push   %r13
  401613:	41 54                	push   %r12
  401615:	55                   	push   %rbp
  401616:	53                   	push   %rbx
  401617:	48 81 ec 68 24 00 00 	sub    $0x2468,%rsp
  40161e:	41 89 fc             	mov    %edi,%r12d
  401621:	ba 00 00 00 00       	mov    $0x0,%edx
  401626:	be 01 00 00 00       	mov    $0x1,%esi
  40162b:	bf 02 00 00 00       	mov    $0x2,%edi
  401630:	e8 4b f7 ff ff       	callq  400d80 <socket@plt>
  401635:	41 89 c7             	mov    %eax,%r15d
  401638:	85 c0                	test   %eax,%eax
  40163a:	0f 88 2a 02 00 00    	js     40186a <send_msg+0x25d>
  401640:	48 c7 84 24 50 24 00 	movq   $0x0,0x2450(%rsp)
  401647:	00 00 00 00 00 
  40164c:	48 c7 84 24 58 24 00 	movq   $0x0,0x2458(%rsp)
  401653:	00 00 00 00 00 
  401658:	66 c7 84 24 50 24 00 	movw   $0x2,0x2450(%rsp)
  40165f:	00 02 00 
  401662:	66 c7 84 24 52 24 00 	movw   $0x7ac8,0x2452(%rsp)
  401669:	00 c8 7a 
  40166c:	48 8d 94 24 54 24 00 	lea    0x2454(%rsp),%rdx
  401673:	00 
  401674:	48 8d 35 50 0b 00 00 	lea    0xb50(%rip),%rsi        # 4021cb <array.3089+0x1bb>
  40167b:	bf 02 00 00 00       	mov    $0x2,%edi
  401680:	b8 00 00 00 00       	mov    $0x0,%eax
  401685:	e8 26 f6 ff ff       	callq  400cb0 <inet_pton@plt>
  40168a:	85 c0                	test   %eax,%eax
  40168c:	0f 88 09 02 00 00    	js     40189b <send_msg+0x28e>
  401692:	48 8d b4 24 50 24 00 	lea    0x2450(%rsp),%rsi
  401699:	00 
  40169a:	ba 10 00 00 00       	mov    $0x10,%edx
  40169f:	44 89 ff             	mov    %r15d,%edi
  4016a2:	e8 99 f6 ff ff       	callq  400d40 <connect@plt>
  4016a7:	85 c0                	test   %eax,%eax
  4016a9:	0f 88 22 02 00 00    	js     4018d1 <send_msg+0x2c4>
  4016af:	48 8d 6c 24 50       	lea    0x50(%rsp),%rbp
  4016b4:	48 b8 53 75 62 6a 65 	movabs $0x3a7463656a627553,%rax
  4016bb:	63 74 3a 
  4016be:	48 89 44 24 50       	mov    %rax,0x50(%rsp)
  4016c3:	48 b8 20 42 6f 6d 62 	movabs $0x6f6e20626d6f4220,%rax
  4016ca:	20 6e 6f 
  4016cd:	48 89 44 24 58       	mov    %rax,0x58(%rsp)
  4016d2:	48 b8 74 69 66 69 63 	movabs $0x6974616369666974,%rax
  4016d9:	61 74 69 
  4016dc:	48 89 44 24 60       	mov    %rax,0x60(%rsp)
  4016e1:	c7 44 24 68 6f 6e 0a 	movl   $0xa6e6f,0x68(%rsp)
  4016e8:	00 
  4016e9:	48 8d 9c 24 50 04 00 	lea    0x450(%rsp),%rbx
  4016f0:	00 
  4016f1:	48 89 ee             	mov    %rbp,%rsi
  4016f4:	48 89 df             	mov    %rbx,%rdi
  4016f7:	e8 14 f6 ff ff       	callq  400d10 <strcat@plt>
  4016fc:	66 c7 44 24 50 0a 00 	movw   $0xa,0x50(%rsp)
  401703:	48 89 ee             	mov    %rbp,%rsi
  401706:	48 89 df             	mov    %rbx,%rdi
  401709:	e8 02 f6 ff ff       	callq  400d10 <strcat@plt>
  40170e:	bf 00 00 00 00       	mov    $0x0,%edi
  401713:	e8 d8 f5 ff ff       	callq  400cf0 <cuserid@plt>
  401718:	48 85 c0             	test   %rax,%rax
  40171b:	0f 84 e6 01 00 00    	je     401907 <send_msg+0x2fa>
  401721:	48 89 e7             	mov    %rsp,%rdi
  401724:	48 89 c6             	mov    %rax,%rsi
  401727:	e8 84 f4 ff ff       	callq  400bb0 <strcpy@plt>
  40172c:	45 85 e4             	test   %r12d,%r12d
  40172f:	48 8d 05 ab 0a 00 00 	lea    0xaab(%rip),%rax        # 4021e1 <array.3089+0x1d1>
  401736:	4c 8d 0d 9c 0a 00 00 	lea    0xa9c(%rip),%r9        # 4021d9 <array.3089+0x1c9>
  40173d:	4c 0f 44 c8          	cmove  %rax,%r9
  401741:	48 8d 5c 24 50       	lea    0x50(%rsp),%rbx
  401746:	48 83 ec 08          	sub    $0x8,%rsp
  40174a:	8b 05 6c 20 20 00    	mov    0x20206c(%rip),%eax        # 6037bc <num_input_strings>
  401750:	50                   	push   %rax
  401751:	4c 8d 44 24 10       	lea    0x10(%rsp),%r8
  401756:	8b 0d 04 1f 20 00    	mov    0x201f04(%rip),%ecx        # 603660 <bomb_id>
  40175c:	48 8d 15 fd 1a 20 00 	lea    0x201afd(%rip),%rdx        # 603260 <lab_id>
  401763:	48 8d 35 9b 0a 00 00 	lea    0xa9b(%rip),%rsi        # 402205 <array.3089+0x1f5>
  40176a:	48 89 df             	mov    %rbx,%rdi
  40176d:	b8 00 00 00 00       	mov    $0x0,%eax
  401772:	e8 a9 f5 ff ff       	callq  400d20 <sprintf@plt>
  401777:	48 8d bc 24 60 04 00 	lea    0x460(%rsp),%rdi
  40177e:	00 
  40177f:	48 89 de             	mov    %rbx,%rsi
  401782:	e8 89 f5 ff ff       	callq  400d10 <strcat@plt>
  401787:	48 83 c4 10          	add    $0x10,%rsp
  40178b:	83 3d 2a 20 20 00 00 	cmpl   $0x0,0x20202a(%rip)        # 6037bc <num_input_strings>
  401792:	7e 70                	jle    401804 <send_msg+0x1f7>
  401794:	bb 00 00 00 00       	mov    $0x0,%ebx
  401799:	4c 8d 35 40 20 20 00 	lea    0x202040(%rip),%r14        # 6037e0 <input_strings>
  4017a0:	49 89 e5             	mov    %rsp,%r13
  4017a3:	48 8d 6c 24 50       	lea    0x50(%rsp),%rbp
  4017a8:	4c 8d a4 24 50 04 00 	lea    0x450(%rsp),%r12
  4017af:	00 
  4017b0:	48 63 c3             	movslq %ebx,%rax
  4017b3:	48 8d 04 80          	lea    (%rax,%rax,4),%rax
  4017b7:	48 c1 e0 04          	shl    $0x4,%rax
  4017bb:	4c 01 f0             	add    %r14,%rax
  4017be:	83 c3 01             	add    $0x1,%ebx
  4017c1:	48 83 ec 08          	sub    $0x8,%rsp
  4017c5:	50                   	push   %rax
  4017c6:	41 89 d9             	mov    %ebx,%r9d
  4017c9:	4d 89 e8             	mov    %r13,%r8
  4017cc:	8b 0d 8e 1e 20 00    	mov    0x201e8e(%rip),%ecx        # 603660 <bomb_id>
  4017d2:	48 8d 15 87 1a 20 00 	lea    0x201a87(%rip),%rdx        # 603260 <lab_id>
  4017d9:	48 8d 35 41 0a 00 00 	lea    0xa41(%rip),%rsi        # 402221 <array.3089+0x211>
  4017e0:	48 89 ef             	mov    %rbp,%rdi
  4017e3:	b8 00 00 00 00       	mov    $0x0,%eax
  4017e8:	e8 33 f5 ff ff       	callq  400d20 <sprintf@plt>
  4017ed:	48 89 ee             	mov    %rbp,%rsi
  4017f0:	4c 89 e7             	mov    %r12,%rdi
  4017f3:	e8 18 f5 ff ff       	callq  400d10 <strcat@plt>
  4017f8:	48 83 c4 10          	add    $0x10,%rsp
  4017fc:	39 1d ba 1f 20 00    	cmp    %ebx,0x201fba(%rip)        # 6037bc <num_input_strings>
  401802:	7f ac                	jg     4017b0 <send_msg+0x1a3>
  401804:	48 8d ac 24 50 04 00 	lea    0x450(%rsp),%rbp
  40180b:	00 
  40180c:	49 c7 c4 ff ff ff ff 	mov    $0xffffffffffffffff,%r12
  401813:	bb 00 00 00 00       	mov    $0x0,%ebx
  401818:	4c 89 e1             	mov    %r12,%rcx
  40181b:	48 89 ef             	mov    %rbp,%rdi
  40181e:	89 d8                	mov    %ebx,%eax
  401820:	f2 ae                	repnz scas %es:(%rdi),%al
  401822:	48 f7 d1             	not    %rcx
  401825:	4a 8d 14 21          	lea    (%rcx,%r12,1),%rdx
  401829:	48 89 ee             	mov    %rbp,%rsi
  40182c:	44 89 ff             	mov    %r15d,%edi
  40182f:	e8 79 fd ff ff       	callq  4015ad <writen>
  401834:	48 89 c2             	mov    %rax,%rdx
  401837:	4c 89 e1             	mov    %r12,%rcx
  40183a:	48 89 ef             	mov    %rbp,%rdi
  40183d:	89 d8                	mov    %ebx,%eax
  40183f:	f2 ae                	repnz scas %es:(%rdi),%al
  401841:	48 f7 d1             	not    %rcx
  401844:	4c 01 e1             	add    %r12,%rcx
  401847:	48 39 ca             	cmp    %rcx,%rdx
  40184a:	0f 82 cf 00 00 00    	jb     40191f <send_msg+0x312>
  401850:	44 89 ff             	mov    %r15d,%edi
  401853:	e8 d8 f3 ff ff       	callq  400c30 <close@plt>
  401858:	48 81 c4 68 24 00 00 	add    $0x2468,%rsp
  40185f:	5b                   	pop    %rbx
  401860:	5d                   	pop    %rbp
  401861:	41 5c                	pop    %r12
  401863:	41 5d                	pop    %r13
  401865:	41 5e                	pop    %r14
  401867:	41 5f                	pop    %r15
  401869:	c3                   	retq   
  40186a:	48 8d 15 79 09 00 00 	lea    0x979(%rip),%rdx        # 4021ea <array.3089+0x1da>
  401871:	48 8d 35 15 06 00 00 	lea    0x615(%rip),%rsi        # 401e8d <_IO_stdin_used+0x1d>
  401878:	48 8b 3d 21 1f 20 00 	mov    0x201f21(%rip),%rdi        # 6037a0 <stdout@@GLIBC_2.2.5>
  40187f:	b8 00 00 00 00       	mov    $0x0,%eax
  401884:	e8 07 f4 ff ff       	callq  400c90 <fprintf@plt>
  401889:	44 89 ff             	mov    %r15d,%edi
  40188c:	e8 9f f3 ff ff       	callq  400c30 <close@plt>
  401891:	bf 01 00 00 00       	mov    $0x1,%edi
  401896:	e8 95 f4 ff ff       	callq  400d30 <exit@plt>
  40189b:	48 8d 15 bc 09 00 00 	lea    0x9bc(%rip),%rdx        # 40225e <array.3089+0x24e>
  4018a2:	48 8d 35 e4 05 00 00 	lea    0x5e4(%rip),%rsi        # 401e8d <_IO_stdin_used+0x1d>
  4018a9:	48 8b 3d f0 1e 20 00 	mov    0x201ef0(%rip),%rdi        # 6037a0 <stdout@@GLIBC_2.2.5>
  4018b0:	b8 00 00 00 00       	mov    $0x0,%eax
  4018b5:	e8 d6 f3 ff ff       	callq  400c90 <fprintf@plt>
  4018ba:	45 85 ff             	test   %r15d,%r15d
  4018bd:	74 08                	je     4018c7 <send_msg+0x2ba>
  4018bf:	44 89 ff             	mov    %r15d,%edi
  4018c2:	e8 69 f3 ff ff       	callq  400c30 <close@plt>
  4018c7:	bf 01 00 00 00       	mov    $0x1,%edi
  4018cc:	e8 5f f4 ff ff       	callq  400d30 <exit@plt>
  4018d1:	48 8d 15 1f 09 00 00 	lea    0x91f(%rip),%rdx        # 4021f7 <array.3089+0x1e7>
  4018d8:	48 8d 35 ae 05 00 00 	lea    0x5ae(%rip),%rsi        # 401e8d <_IO_stdin_used+0x1d>
  4018df:	48 8b 3d ba 1e 20 00 	mov    0x201eba(%rip),%rdi        # 6037a0 <stdout@@GLIBC_2.2.5>
  4018e6:	b8 00 00 00 00       	mov    $0x0,%eax
  4018eb:	e8 a0 f3 ff ff       	callq  400c90 <fprintf@plt>
  4018f0:	45 85 ff             	test   %r15d,%r15d
  4018f3:	74 08                	je     4018fd <send_msg+0x2f0>
  4018f5:	44 89 ff             	mov    %r15d,%edi
  4018f8:	e8 33 f3 ff ff       	callq  400c30 <close@plt>
  4018fd:	bf 01 00 00 00       	mov    $0x1,%edi
  401902:	e8 29 f4 ff ff       	callq  400d30 <exit@plt>
  401907:	c7 04 24 6e 6f 62 6f 	movl   $0x6f626f6e,(%rsp)
  40190e:	66 c7 44 24 04 64 79 	movw   $0x7964,0x4(%rsp)
  401915:	c6 44 24 06 00       	movb   $0x0,0x6(%rsp)
  40191a:	e9 0d fe ff ff       	jmpq   40172c <send_msg+0x11f>
  40191f:	48 8d 15 17 09 00 00 	lea    0x917(%rip),%rdx        # 40223d <array.3089+0x22d>
  401926:	48 8d 35 60 05 00 00 	lea    0x560(%rip),%rsi        # 401e8d <_IO_stdin_used+0x1d>
  40192d:	48 8b 3d 6c 1e 20 00 	mov    0x201e6c(%rip),%rdi        # 6037a0 <stdout@@GLIBC_2.2.5>
  401934:	e8 57 f3 ff ff       	callq  400c90 <fprintf@plt>
  401939:	45 85 ff             	test   %r15d,%r15d
  40193c:	74 08                	je     401946 <send_msg+0x339>
  40193e:	44 89 ff             	mov    %r15d,%edi
  401941:	e8 ea f2 ff ff       	callq  400c30 <close@plt>
  401946:	bf 01 00 00 00       	mov    $0x1,%edi
  40194b:	e8 e0 f3 ff ff       	callq  400d30 <exit@plt>

0000000000401950 <send_msg_2>:
  401950:	41 57                	push   %r15
  401952:	41 56                	push   %r14
  401954:	41 55                	push   %r13
  401956:	41 54                	push   %r12
  401958:	55                   	push   %rbp
  401959:	53                   	push   %rbx
  40195a:	48 83 ec 68          	sub    $0x68,%rsp
  40195e:	89 fb                	mov    %edi,%ebx
  401960:	bf 00 00 00 00       	mov    $0x0,%edi
  401965:	e8 b6 f2 ff ff       	callq  400c20 <dup@plt>
  40196a:	89 44 24 0c          	mov    %eax,0xc(%rsp)
  40196e:	83 f8 ff             	cmp    $0xffffffff,%eax
  401971:	0f 84 a6 01 00 00    	je     401b1d <send_msg_2+0x1cd>
  401977:	bf 00 00 00 00       	mov    $0x0,%edi
  40197c:	e8 af f2 ff ff       	callq  400c30 <close@plt>
  401981:	83 f8 ff             	cmp    $0xffffffff,%eax
  401984:	0f 84 a9 01 00 00    	je     401b33 <send_msg_2+0x1e3>
  40198a:	e8 d1 f2 ff ff       	callq  400c60 <tmpfile@plt>
  40198f:	48 89 c5             	mov    %rax,%rbp
  401992:	48 85 c0             	test   %rax,%rax
  401995:	0f 84 ae 01 00 00    	je     401b49 <send_msg_2+0x1f9>
  40199b:	48 89 c1             	mov    %rax,%rcx
  40199e:	ba 1b 00 00 00       	mov    $0x1b,%edx
  4019a3:	be 01 00 00 00       	mov    $0x1,%esi
  4019a8:	48 8d 3d dd 08 00 00 	lea    0x8dd(%rip),%rdi        # 40228c <array.3089+0x27c>
  4019af:	e8 9c f3 ff ff       	callq  400d50 <fwrite@plt>
  4019b4:	48 89 ee             	mov    %rbp,%rsi
  4019b7:	bf 0a 00 00 00       	mov    $0xa,%edi
  4019bc:	e8 7f f2 ff ff       	callq  400c40 <fputc@plt>
  4019c1:	bf 00 00 00 00       	mov    $0x0,%edi
  4019c6:	e8 25 f3 ff ff       	callq  400cf0 <cuserid@plt>
  4019cb:	48 85 c0             	test   %rax,%rax
  4019ce:	0f 84 8b 01 00 00    	je     401b5f <send_msg_2+0x20f>
  4019d4:	48 8d 7c 24 10       	lea    0x10(%rsp),%rdi
  4019d9:	48 89 c6             	mov    %rax,%rsi
  4019dc:	e8 cf f1 ff ff       	callq  400bb0 <strcpy@plt>
  4019e1:	85 db                	test   %ebx,%ebx
  4019e3:	48 8d 05 f7 07 00 00 	lea    0x7f7(%rip),%rax        # 4021e1 <array.3089+0x1d1>
  4019ea:	4c 8d 0d e8 07 00 00 	lea    0x7e8(%rip),%r9        # 4021d9 <array.3089+0x1c9>
  4019f1:	4c 0f 44 c8          	cmove  %rax,%r9
  4019f5:	48 83 ec 08          	sub    $0x8,%rsp
  4019f9:	8b 05 bd 1d 20 00    	mov    0x201dbd(%rip),%eax        # 6037bc <num_input_strings>
  4019ff:	50                   	push   %rax
  401a00:	4c 8d 44 24 20       	lea    0x20(%rsp),%r8
  401a05:	8b 0d 55 1c 20 00    	mov    0x201c55(%rip),%ecx        # 603660 <bomb_id>
  401a0b:	48 8d 15 4e 18 20 00 	lea    0x20184e(%rip),%rdx        # 603260 <lab_id>
  401a12:	48 8d 35 ec 07 00 00 	lea    0x7ec(%rip),%rsi        # 402205 <array.3089+0x1f5>
  401a19:	48 89 ef             	mov    %rbp,%rdi
  401a1c:	b8 00 00 00 00       	mov    $0x0,%eax
  401a21:	e8 6a f2 ff ff       	callq  400c90 <fprintf@plt>
  401a26:	48 83 c4 10          	add    $0x10,%rsp
  401a2a:	83 3d 8b 1d 20 00 00 	cmpl   $0x0,0x201d8b(%rip)        # 6037bc <num_input_strings>
  401a31:	7e 60                	jle    401a93 <send_msg_2+0x143>
  401a33:	bb 00 00 00 00       	mov    $0x0,%ebx
  401a38:	4c 8d 3d a1 1d 20 00 	lea    0x201da1(%rip),%r15        # 6037e0 <input_strings>
  401a3f:	4c 8d 74 24 10       	lea    0x10(%rsp),%r14
  401a44:	4c 8d 2d 15 18 20 00 	lea    0x201815(%rip),%r13        # 603260 <lab_id>
  401a4b:	4c 8d 25 cf 07 00 00 	lea    0x7cf(%rip),%r12        # 402221 <array.3089+0x211>
  401a52:	48 63 c3             	movslq %ebx,%rax
  401a55:	48 8d 04 80          	lea    (%rax,%rax,4),%rax
  401a59:	48 c1 e0 04          	shl    $0x4,%rax
  401a5d:	4c 01 f8             	add    %r15,%rax
  401a60:	83 c3 01             	add    $0x1,%ebx
  401a63:	48 83 ec 08          	sub    $0x8,%rsp
  401a67:	50                   	push   %rax
  401a68:	41 89 d9             	mov    %ebx,%r9d
  401a6b:	4d 89 f0             	mov    %r14,%r8
  401a6e:	8b 0d ec 1b 20 00    	mov    0x201bec(%rip),%ecx        # 603660 <bomb_id>
  401a74:	4c 89 ea             	mov    %r13,%rdx
  401a77:	4c 89 e6             	mov    %r12,%rsi
  401a7a:	48 89 ef             	mov    %rbp,%rdi
  401a7d:	b8 00 00 00 00       	mov    $0x0,%eax
  401a82:	e8 09 f2 ff ff       	callq  400c90 <fprintf@plt>
  401a87:	48 83 c4 10          	add    $0x10,%rsp
  401a8b:	39 1d 2b 1d 20 00    	cmp    %ebx,0x201d2b(%rip)        # 6037bc <num_input_strings>
  401a91:	7f bf                	jg     401a52 <send_msg_2+0x102>
  401a93:	48 89 ef             	mov    %rbp,%rdi
  401a96:	e8 75 f1 ff ff       	callq  400c10 <rewind@plt>
  401a9b:	4c 8d 05 06 08 00 00 	lea    0x806(%rip),%r8        # 4022a8 <array.3089+0x298>
  401aa2:	48 8d 0d 09 08 00 00 	lea    0x809(%rip),%rcx        # 4022b2 <array.3089+0x2a2>
  401aa9:	48 8d 15 0a 08 00 00 	lea    0x80a(%rip),%rdx        # 4022ba <array.3089+0x2aa>
  401ab0:	48 8d 35 1a 08 00 00 	lea    0x81a(%rip),%rsi        # 4022d1 <array.3089+0x2c1>
  401ab7:	48 8d 3d 62 23 20 00 	lea    0x202362(%rip),%rdi        # 603e20 <scratch>
  401abe:	b8 00 00 00 00       	mov    $0x0,%eax
  401ac3:	e8 58 f2 ff ff       	callq  400d20 <sprintf@plt>
  401ac8:	48 8d 3d 51 23 20 00 	lea    0x202351(%rip),%rdi        # 603e20 <scratch>
  401acf:	e8 1c f1 ff ff       	callq  400bf0 <system@plt>
  401ad4:	85 c0                	test   %eax,%eax
  401ad6:	0f 85 9c 00 00 00    	jne    401b78 <send_msg_2+0x228>
  401adc:	48 89 ef             	mov    %rbp,%rdi
  401adf:	e8 fc f0 ff ff       	callq  400be0 <fclose@plt>
  401ae4:	85 c0                	test   %eax,%eax
  401ae6:	0f 85 a2 00 00 00    	jne    401b8e <send_msg_2+0x23e>
  401aec:	8b 7c 24 0c          	mov    0xc(%rsp),%edi
  401af0:	e8 2b f1 ff ff       	callq  400c20 <dup@plt>
  401af5:	85 c0                	test   %eax,%eax
  401af7:	0f 85 a7 00 00 00    	jne    401ba4 <send_msg_2+0x254>
  401afd:	8b 7c 24 0c          	mov    0xc(%rsp),%edi
  401b01:	e8 2a f1 ff ff       	callq  400c30 <close@plt>
  401b06:	85 c0                	test   %eax,%eax
  401b08:	0f 85 ac 00 00 00    	jne    401bba <send_msg_2+0x26a>
  401b0e:	48 83 c4 68          	add    $0x68,%rsp
  401b12:	5b                   	pop    %rbx
  401b13:	5d                   	pop    %rbp
  401b14:	41 5c                	pop    %r12
  401b16:	41 5d                	pop    %r13
  401b18:	41 5e                	pop    %r14
  401b1a:	41 5f                	pop    %r15
  401b1c:	c3                   	retq   
  401b1d:	48 8d 3d 2c 07 00 00 	lea    0x72c(%rip),%rdi        # 402250 <array.3089+0x240>
  401b24:	e8 97 f0 ff ff       	callq  400bc0 <puts@plt>
  401b29:	bf 08 00 00 00       	mov    $0x8,%edi
  401b2e:	e8 fd f1 ff ff       	callq  400d30 <exit@plt>
  401b33:	48 8d 3d 2a 07 00 00 	lea    0x72a(%rip),%rdi        # 402264 <array.3089+0x254>
  401b3a:	e8 81 f0 ff ff       	callq  400bc0 <puts@plt>
  401b3f:	bf 08 00 00 00       	mov    $0x8,%edi
  401b44:	e8 e7 f1 ff ff       	callq  400d30 <exit@plt>
  401b49:	48 8d 3d 27 07 00 00 	lea    0x727(%rip),%rdi        # 402277 <array.3089+0x267>
  401b50:	e8 6b f0 ff ff       	callq  400bc0 <puts@plt>
  401b55:	bf 08 00 00 00       	mov    $0x8,%edi
  401b5a:	e8 d1 f1 ff ff       	callq  400d30 <exit@plt>
  401b5f:	c7 44 24 10 6e 6f 62 	movl   $0x6f626f6e,0x10(%rsp)
  401b66:	6f 
  401b67:	66 c7 44 24 14 64 79 	movw   $0x7964,0x14(%rsp)
  401b6e:	c6 44 24 16 00       	movb   $0x0,0x16(%rsp)
  401b73:	e9 69 fe ff ff       	jmpq   4019e1 <send_msg_2+0x91>
  401b78:	48 8d 3d 5b 07 00 00 	lea    0x75b(%rip),%rdi        # 4022da <array.3089+0x2ca>
  401b7f:	e8 3c f0 ff ff       	callq  400bc0 <puts@plt>
  401b84:	bf 08 00 00 00       	mov    $0x8,%edi
  401b89:	e8 a2 f1 ff ff       	callq  400d30 <exit@plt>
  401b8e:	48 8d 3d 5f 07 00 00 	lea    0x75f(%rip),%rdi        # 4022f4 <array.3089+0x2e4>
  401b95:	e8 26 f0 ff ff       	callq  400bc0 <puts@plt>
  401b9a:	bf 08 00 00 00       	mov    $0x8,%edi
  401b9f:	e8 8c f1 ff ff       	callq  400d30 <exit@plt>
  401ba4:	48 8d 3d 62 07 00 00 	lea    0x762(%rip),%rdi        # 40230d <array.3089+0x2fd>
  401bab:	e8 10 f0 ff ff       	callq  400bc0 <puts@plt>
  401bb0:	bf 08 00 00 00       	mov    $0x8,%edi
  401bb5:	e8 76 f1 ff ff       	callq  400d30 <exit@plt>
  401bba:	48 8d 3d 67 07 00 00 	lea    0x767(%rip),%rdi        # 402328 <array.3089+0x318>
  401bc1:	e8 fa ef ff ff       	callq  400bc0 <puts@plt>
  401bc6:	bf 08 00 00 00       	mov    $0x8,%edi
  401bcb:	e8 60 f1 ff ff       	callq  400d30 <exit@plt>

0000000000401bd0 <explode_bomb>:
  401bd0:	48 83 ec 08          	sub    $0x8,%rsp
  401bd4:	48 8d 3d 64 07 00 00 	lea    0x764(%rip),%rdi        # 40233f <array.3089+0x32f>
  401bdb:	e8 e0 ef ff ff       	callq  400bc0 <puts@plt>
  401be0:	48 8d 3d 61 07 00 00 	lea    0x761(%rip),%rdi        # 402348 <array.3089+0x338>
  401be7:	e8 d4 ef ff ff       	callq  400bc0 <puts@plt>
  401bec:	bf 00 00 00 00       	mov    $0x0,%edi
  401bf1:	e8 17 fa ff ff       	callq  40160d <send_msg>
  401bf6:	48 8d 3d 83 04 00 00 	lea    0x483(%rip),%rdi        # 402080 <array.3089+0x70>
  401bfd:	e8 be ef ff ff       	callq  400bc0 <puts@plt>
  401c02:	bf 08 00 00 00       	mov    $0x8,%edi
  401c07:	e8 24 f1 ff ff       	callq  400d30 <exit@plt>

0000000000401c0c <read_six_numbers>:
  401c0c:	48 83 ec 08          	sub    $0x8,%rsp
  401c10:	48 89 f2             	mov    %rsi,%rdx
  401c13:	48 8d 4e 04          	lea    0x4(%rsi),%rcx
  401c17:	48 8d 46 14          	lea    0x14(%rsi),%rax
  401c1b:	50                   	push   %rax
  401c1c:	48 8d 46 10          	lea    0x10(%rsi),%rax
  401c20:	50                   	push   %rax
  401c21:	4c 8d 4e 0c          	lea    0xc(%rsi),%r9
  401c25:	4c 8d 46 08          	lea    0x8(%rsi),%r8
  401c29:	48 8d 35 2f 07 00 00 	lea    0x72f(%rip),%rsi        # 40235f <array.3089+0x34f>
  401c30:	b8 00 00 00 00       	mov    $0x0,%eax
  401c35:	e8 96 f0 ff ff       	callq  400cd0 <__isoc99_sscanf@plt>
  401c3a:	48 83 c4 10          	add    $0x10,%rsp
  401c3e:	83 f8 05             	cmp    $0x5,%eax
  401c41:	7e 05                	jle    401c48 <read_six_numbers+0x3c>
  401c43:	48 83 c4 08          	add    $0x8,%rsp
  401c47:	c3                   	retq   
  401c48:	e8 83 ff ff ff       	callq  401bd0 <explode_bomb>

0000000000401c4d <read_line>:
  401c4d:	48 83 ec 08          	sub    $0x8,%rsp
  401c51:	b8 00 00 00 00       	mov    $0x0,%eax
  401c56:	e8 04 f9 ff ff       	callq  40155f <skip>
  401c5b:	48 85 c0             	test   %rax,%rax
  401c5e:	74 6f                	je     401ccf <read_line+0x82>
  401c60:	8b 35 56 1b 20 00    	mov    0x201b56(%rip),%esi        # 6037bc <num_input_strings>
  401c66:	48 63 c6             	movslq %esi,%rax
  401c69:	48 8d 14 80          	lea    (%rax,%rax,4),%rdx
  401c6d:	48 c1 e2 04          	shl    $0x4,%rdx
  401c71:	48 8d 05 68 1b 20 00 	lea    0x201b68(%rip),%rax        # 6037e0 <input_strings>
  401c78:	48 01 c2             	add    %rax,%rdx
  401c7b:	b8 00 00 00 00       	mov    $0x0,%eax
  401c80:	48 c7 c1 ff ff ff ff 	mov    $0xffffffffffffffff,%rcx
  401c87:	48 89 d7             	mov    %rdx,%rdi
  401c8a:	f2 ae                	repnz scas %es:(%rdi),%al
  401c8c:	48 f7 d1             	not    %rcx
  401c8f:	48 83 e9 01          	sub    $0x1,%rcx
  401c93:	83 f9 4f             	cmp    $0x4f,%ecx
  401c96:	0f 84 a1 00 00 00    	je     401d3d <read_line+0xf0>
  401c9c:	83 e9 01             	sub    $0x1,%ecx
  401c9f:	48 63 c9             	movslq %ecx,%rcx
  401ca2:	48 63 c6             	movslq %esi,%rax
  401ca5:	48 8d 04 80          	lea    (%rax,%rax,4),%rax
  401ca9:	48 c1 e0 04          	shl    $0x4,%rax
  401cad:	48 89 c7             	mov    %rax,%rdi
  401cb0:	48 8d 05 29 1b 20 00 	lea    0x201b29(%rip),%rax        # 6037e0 <input_strings>
  401cb7:	48 01 f8             	add    %rdi,%rax
  401cba:	c6 04 08 00          	movb   $0x0,(%rax,%rcx,1)
  401cbe:	83 c6 01             	add    $0x1,%esi
  401cc1:	89 35 f5 1a 20 00    	mov    %esi,0x201af5(%rip)        # 6037bc <num_input_strings>
  401cc7:	48 89 d0             	mov    %rdx,%rax
  401cca:	48 83 c4 08          	add    $0x8,%rsp
  401cce:	c3                   	retq   
  401ccf:	48 8b 05 da 1a 20 00 	mov    0x201ada(%rip),%rax        # 6037b0 <stdin@@GLIBC_2.2.5>
  401cd6:	48 39 05 e3 1a 20 00 	cmp    %rax,0x201ae3(%rip)        # 6037c0 <infile>
  401cdd:	74 43                	je     401d22 <read_line+0xd5>
  401cdf:	48 8d 3d a9 06 00 00 	lea    0x6a9(%rip),%rdi        # 40238f <array.3089+0x37f>
  401ce6:	e8 a5 ee ff ff       	callq  400b90 <getenv@plt>
  401ceb:	48 85 c0             	test   %rax,%rax
  401cee:	75 43                	jne    401d33 <read_line+0xe6>
  401cf0:	48 8b 05 b9 1a 20 00 	mov    0x201ab9(%rip),%rax        # 6037b0 <stdin@@GLIBC_2.2.5>
  401cf7:	48 89 05 c2 1a 20 00 	mov    %rax,0x201ac2(%rip)        # 6037c0 <infile>
  401cfe:	b8 00 00 00 00       	mov    $0x0,%eax
  401d03:	e8 57 f8 ff ff       	callq  40155f <skip>
  401d08:	48 85 c0             	test   %rax,%rax
  401d0b:	0f 85 4f ff ff ff    	jne    401c60 <read_line+0x13>
  401d11:	48 8d 3d 59 06 00 00 	lea    0x659(%rip),%rdi        # 402371 <array.3089+0x361>
  401d18:	e8 a3 ee ff ff       	callq  400bc0 <puts@plt>
  401d1d:	e8 ae fe ff ff       	callq  401bd0 <explode_bomb>
  401d22:	48 8d 3d 48 06 00 00 	lea    0x648(%rip),%rdi        # 402371 <array.3089+0x361>
  401d29:	e8 92 ee ff ff       	callq  400bc0 <puts@plt>
  401d2e:	e8 9d fe ff ff       	callq  401bd0 <explode_bomb>
  401d33:	bf 00 00 00 00       	mov    $0x0,%edi
  401d38:	e8 f3 ef ff ff       	callq  400d30 <exit@plt>
  401d3d:	48 8d 3d 56 06 00 00 	lea    0x656(%rip),%rdi        # 40239a <array.3089+0x38a>
  401d44:	e8 77 ee ff ff       	callq  400bc0 <puts@plt>
  401d49:	e8 82 fe ff ff       	callq  401bd0 <explode_bomb>

0000000000401d4e <phase_defused>:
  401d4e:	48 83 ec 68          	sub    $0x68,%rsp
  401d52:	bf 01 00 00 00       	mov    $0x1,%edi
  401d57:	e8 b1 f8 ff ff       	callq  40160d <send_msg>
  401d5c:	83 3d 59 1a 20 00 06 	cmpl   $0x6,0x201a59(%rip)        # 6037bc <num_input_strings>
  401d63:	74 05                	je     401d6a <phase_defused+0x1c>
  401d65:	48 83 c4 68          	add    $0x68,%rsp
  401d69:	c3                   	retq   
  401d6a:	48 8d 4c 24 10       	lea    0x10(%rsp),%rcx
  401d6f:	48 8d 54 24 0c       	lea    0xc(%rsp),%rdx
  401d74:	48 8d 35 3a 06 00 00 	lea    0x63a(%rip),%rsi        # 4023b5 <array.3089+0x3a5>
  401d7b:	48 8d 3d 4e 1b 20 00 	lea    0x201b4e(%rip),%rdi        # 6038d0 <input_strings+0xf0>
  401d82:	b8 00 00 00 00       	mov    $0x0,%eax
  401d87:	e8 44 ef ff ff       	callq  400cd0 <__isoc99_sscanf@plt>
  401d8c:	83 f8 02             	cmp    $0x2,%eax
  401d8f:	74 1a                	je     401dab <phase_defused+0x5d>
  401d91:	48 8d 3d 70 03 00 00 	lea    0x370(%rip),%rdi        # 402108 <array.3089+0xf8>
  401d98:	e8 23 ee ff ff       	callq  400bc0 <puts@plt>
  401d9d:	48 8d 3d 94 03 00 00 	lea    0x394(%rip),%rdi        # 402138 <array.3089+0x128>
  401da4:	e8 17 ee ff ff       	callq  400bc0 <puts@plt>
  401da9:	eb ba                	jmp    401d65 <phase_defused+0x17>
  401dab:	48 8d 7c 24 10       	lea    0x10(%rsp),%rdi
  401db0:	48 8d 35 04 06 00 00 	lea    0x604(%rip),%rsi        # 4023bb <array.3089+0x3ab>
  401db7:	e8 04 f6 ff ff       	callq  4013c0 <strings_not_equal>
  401dbc:	85 c0                	test   %eax,%eax
  401dbe:	75 d1                	jne    401d91 <phase_defused+0x43>
  401dc0:	48 8d 3d e1 02 00 00 	lea    0x2e1(%rip),%rdi        # 4020a8 <array.3089+0x98>
  401dc7:	e8 f4 ed ff ff       	callq  400bc0 <puts@plt>
  401dcc:	48 8d 3d fd 02 00 00 	lea    0x2fd(%rip),%rdi        # 4020d0 <array.3089+0xc0>
  401dd3:	e8 e8 ed ff ff       	callq  400bc0 <puts@plt>
  401dd8:	b8 00 00 00 00       	mov    $0x0,%eax
  401ddd:	e8 f0 f4 ff ff       	callq  4012d2 <secret_phase>
  401de2:	eb ad                	jmp    401d91 <phase_defused+0x43>
  401de4:	66 2e 0f 1f 84 00 00 	nopw   %cs:0x0(%rax,%rax,1)
  401deb:	00 00 00 
  401dee:	66 90                	xchg   %ax,%ax

0000000000401df0 <__libc_csu_init>:
  401df0:	41 57                	push   %r15
  401df2:	41 56                	push   %r14
  401df4:	41 89 ff             	mov    %edi,%r15d
  401df7:	41 55                	push   %r13
  401df9:	41 54                	push   %r12
  401dfb:	4c 8d 25 06 10 20 00 	lea    0x201006(%rip),%r12        # 602e08 <__frame_dummy_init_array_entry>
  401e02:	55                   	push   %rbp
  401e03:	48 8d 2d 06 10 20 00 	lea    0x201006(%rip),%rbp        # 602e10 <__init_array_end>
  401e0a:	53                   	push   %rbx
  401e0b:	49 89 f6             	mov    %rsi,%r14
  401e0e:	49 89 d5             	mov    %rdx,%r13
  401e11:	4c 29 e5             	sub    %r12,%rbp
  401e14:	48 83 ec 08          	sub    $0x8,%rsp
  401e18:	48 c1 fd 03          	sar    $0x3,%rbp
  401e1c:	e8 47 ed ff ff       	callq  400b68 <_init>
  401e21:	48 85 ed             	test   %rbp,%rbp
  401e24:	74 20                	je     401e46 <__libc_csu_init+0x56>
  401e26:	31 db                	xor    %ebx,%ebx
  401e28:	0f 1f 84 00 00 00 00 	nopl   0x0(%rax,%rax,1)
  401e2f:	00 
  401e30:	4c 89 ea             	mov    %r13,%rdx
  401e33:	4c 89 f6             	mov    %r14,%rsi
  401e36:	44 89 ff             	mov    %r15d,%edi
  401e39:	41 ff 14 dc          	callq  *(%r12,%rbx,8)
  401e3d:	48 83 c3 01          	add    $0x1,%rbx
  401e41:	48 39 dd             	cmp    %rbx,%rbp
  401e44:	75 ea                	jne    401e30 <__libc_csu_init+0x40>
  401e46:	48 83 c4 08          	add    $0x8,%rsp
  401e4a:	5b                   	pop    %rbx
  401e4b:	5d                   	pop    %rbp
  401e4c:	41 5c                	pop    %r12
  401e4e:	41 5d                	pop    %r13
  401e50:	41 5e                	pop    %r14
  401e52:	41 5f                	pop    %r15
  401e54:	c3                   	retq   
  401e55:	90                   	nop
  401e56:	66 2e 0f 1f 84 00 00 	nopw   %cs:0x0(%rax,%rax,1)
  401e5d:	00 00 00 

0000000000401e60 <__libc_csu_fini>:
  401e60:	f3 c3                	repz retq 

Disassembly of section .fini:

0000000000401e64 <_fini>:
  401e64:	48 83 ec 08          	sub    $0x8,%rsp
  401e68:	48 83 c4 08          	add    $0x8,%rsp
  401e6c:	c3                   	retq   
